target datalayout = "e-m:e-p270:32:32-p271:32:32-p272:64:64-i64:64-i128:128-f80:128-n8:16:32:64-S128"
target triple = "x86_64-pc-linux-gnu"

@LocalRefCount = dso_local global ptr null, align 8
@NLocalPinnedBuffers = internal global i32 0, align 4

; Function Attrs: nounwind uwtable
define dso_local void @UnpinLocalBufferNoOwner(i32 noundef %0) #0 {
  %2 = alloca i32, align 4
  %3 = alloca i32, align 4
  store i32 %0, ptr %2, align 4
  call void @llvm.lifetime.start.p0(i64 4, ptr %3) #9
  %4 = load i32, ptr %2, align 4
  %5 = sub i32 0, %4
  %6 = sub i32 %5, 1
  store i32 %6, ptr %3, align 4
  %7 = load ptr, ptr @LocalRefCount, align 8
  %8 = load i32, ptr %3, align 4
  %9 = sext i32 %8 to i64
  %10 = getelementptr inbounds i32, ptr %7, i64 %9
  %11 = load i32, ptr %10, align 4
  %12 = add i32 %11, -1
  store i32 %12, ptr %10, align 4
  %13 = icmp eq i32 %12, 0
  br i1 %13, label %14, label %17

14:                                               ; preds = %1
  %15 = load i32, ptr @NLocalPinnedBuffers, align 4
  %16 = add i32 %15, -1
  store i32 %16, ptr @NLocalPinnedBuffers, align 4
  br label %17

17:                                               ; preds = %14, %1
  call void @llvm.lifetime.end.p0(i64 4, ptr %3) #9
  ret void
}