; Function Attrs: mustprogress nofree norecurse nosync nounwind willreturn memory(readwrite, inaccessiblemem: none) uwtable
define dso_local void @UnpinLocalBufferNoOwner(i32 noundef %0) local_unnamed_addr #8 {
  %2 = xor i32 %0, -1
  %3 = load ptr, ptr @LocalRefCount, align 8
  %4 = sext i32 %2 to i64
  %5 = getelementptr inbounds i32, ptr %3, i64 %4
  %6 = load i32, ptr %5, align 4
  %7 = add i32 %6, -1
  store i32 %7, ptr %5, align 4
  %8 = icmp eq i32 %7, 0
  br i1 %8, label %9, label %12

9:                                                ; preds = %1
  %10 = load i32, ptr @NLocalPinnedBuffers, align 4
  %11 = add i32 %10, -1
  store i32 %11, ptr @NLocalPinnedBuffers, align 4
  br label %12

12:                                               ; preds = %9, %1
  ret void
}